; Function Attrs: nounwind uwtable
define dso_local ptr @copy_attributes_single(ptr noundef readonly %0) local_unnamed_addr #0 {
  store ptr @copy_struct, ptr getelementptr inbounds (%struct.CopyStruct_, ptr @copy_struct, i64 0, i32 1), align 8
  store i8 1, ptr getelementptr inbounds (%struct.CopyStruct_, ptr @copy_struct, i64 0, i32 3), align 1
  store i8 0, ptr getelementptr inbounds (%struct.CopyStruct_, ptr @copy_struct, i64 0, i32 2), align 8
  %.not.i = icmp eq ptr %0, null
  br i1 %.not.i, label %copy_attributes.exit, label %2

2:                                                ; preds = %1
  %3 = getelementptr inbounds i8, ptr %0, i64 -8
  %4 = load i32, ptr %3, align 4
  %.not37.i = icmp eq i32 %4, 0
  br i1 %.not37.i, label %copy_attributes.exit, label %.lr.ph.preheader.i

.lr.ph.preheader.i:                               ; preds = %2
  %wide.trip.count.i = zext i32 %4 to i64
  br label %.lr.ph.i

.lr.ph.i:                                         ; preds = %70, %.lr.ph.preheader.i
  %indvars.iv.i = phi i64 [ 0, %.lr.ph.preheader.i ], [ %indvars.iv.next.i, %70 ]
  %.02936.i = phi ptr [ null, %.lr.ph.preheader.i ], [ %73, %70 ]
  %5 = getelementptr inbounds ptr, ptr %0, i64 %indvars.iv.i
  %6 = load ptr, ptr %5, align 8
  %7 = tail call ptr @calloc_arena(i64 noundef 40) #5
  tail call void @llvm.memcpy.p0.p0.i64(ptr noundef nonnull align 8 dereferenceable(40) %7, ptr noundef nonnull align 8 dereferenceable(40) %6, i64 40, i1 false)
  %8 = getelementptr inbounds i8, ptr %7, i64 32
  %9 = load ptr, ptr %8, align 8
  %.not.i.i = icmp eq ptr %9, null
  br i1 %.not.i.i, label %copy_expr_list.exit.i, label %10

10:                                               ; preds = %.lr.ph.i
  %11 = getelementptr inbounds i8, ptr %9, i64 -8
  %12 = load i32, ptr %11, align 4
  %.not27.i.i = icmp eq i32 %12, 0
  br i1 %.not27.i.i, label %copy_expr_list.exit.i, label %.lr.ph.preheader.i.i

.lr.ph.preheader.i.i:                             ; preds = %10
  %wide.trip.count.i.i = zext i32 %12 to i64
  br label %.lr.ph.i.i

.lr.ph.i.i:                                       ; preds = %36, %.lr.ph.preheader.i.i
  %indvars.iv.i.i = phi i64 [ 0, %.lr.ph.preheader.i.i ], [ %indvars.iv.next.i.i, %36 ]
  %.02125.i.i = phi ptr [ null, %.lr.ph.preheader.i.i ], [ %39, %36 ]
  %.not.i.i.i = icmp eq ptr %.02125.i.i, null
  br i1 %.not.i.i.i, label %13, label %16

13:                                               ; preds = %.lr.ph.i.i
  %14 = tail call ptr @calloc_arena(i64 noundef 72) #5
  %15 = getelementptr inbounds i8, ptr %14, i64 4
  store i32 8, ptr %15, align 4
  br label %18

16:                                               ; preds = %.lr.ph.i.i
  %17 = getelementptr inbounds i8, ptr %.02125.i.i, i64 -8
  %.phi.trans.insert.i.i.i = getelementptr inbounds i8, ptr %.02125.i.i, i64 -4
  %.pre.i.i.i = load i32, ptr %.phi.trans.insert.i.i.i, align 4
  br label %18

18:                                               ; preds = %16, %13
  %19 = phi i32 [ %.pre.i.i.i, %16 ], [ 8, %13 ]
  %.0.i.i.i = phi ptr [ %17, %16 ], [ %14, %13 ]
  %20 = load i32, ptr %.0.i.i.i, align 4
  %21 = icmp eq i32 %20, %19
  br i1 %21, label %22, label %36

22:                                               ; preds = %18
  %23 = getelementptr inbounds i8, ptr %.0.i.i.i, i64 4
  %24 = shl i32 %19, 1
  %25 = zext i32 %24 to i64
  %26 = shl nuw nsw i64 %25, 3
  %27 = or disjoint i64 %26, 8
  %28 = tail call ptr @calloc_arena(i64 noundef %27) #5
  %29 = getelementptr inbounds i8, ptr %28, i64 4
  store i32 %24, ptr %29, align 4
  %30 = load i32, ptr %23, align 4
  %31 = zext i32 %30 to i64
  %32 = shl nuw nsw i64 %31, 3
  %33 = add nuw nsw i64 %32, 8
  tail call void @llvm.memcpy.p0.p0.i64(ptr noundef nonnull align 4 dereferenceable(1) %28, ptr noundef nonnull align 4 dereferenceable(1) %.0.i.i.i, i64 %33, i1 false)
  %34 = load i32, ptr %29, align 4
  %35 = shl i32 %34, 1
  store i32 %35, ptr %29, align 4
  %.pre18.i.i.i = load i32, ptr %28, align 4
  br label %36

36:                                               ; preds = %22, %18
  %37 = phi i32 [ %.pre18.i.i.i, %22 ], [ %20, %18 ]
  %.1.i.i.i = phi ptr [ %28, %22 ], [ %.0.i.i.i, %18 ]
  %38 = add i32 %37, 1
  store i32 %38, ptr %.1.i.i.i, align 4
  %39 = getelementptr inbounds i8, ptr %.1.i.i.i, i64 8
  %40 = getelementptr inbounds ptr, ptr %9, i64 %indvars.iv.i.i
  %41 = load ptr, ptr %40, align 8
  %42 = tail call fastcc ptr @copy_expr(ptr noundef nonnull @copy_struct, ptr noundef %41) #7
  %43 = load i32, ptr %.1.i.i.i, align 4
  %44 = add i32 %43, -1
  %45 = zext i32 %44 to i64
  %46 = getelementptr inbounds ptr, ptr %39, i64 %45
  store ptr %42, ptr %46, align 8
  %indvars.iv.next.i.i = add nuw nsw i64 %indvars.iv.i.i, 1
  %exitcond.not.i.i = icmp eq i64 %indvars.iv.next.i.i, %wide.trip.count.i.i
  br i1 %exitcond.not.i.i, label %copy_expr_list.exit.i, label %.lr.ph.i.i, !llvm.loop !10

copy_expr_list.exit.i:                            ; preds = %36, %10, %.lr.ph.i
  %.021.lcssa.i.i = phi ptr [ null, %10 ], [ null, %.lr.ph.i ], [ %39, %36 ]
  store ptr %.021.lcssa.i.i, ptr %8, align 8
  %.not.i34.i = icmp eq ptr %.02936.i, null
  br i1 %.not.i34.i, label %47, label %50

47:                                               ; preds = %copy_expr_list.exit.i
  %48 = tail call ptr @calloc_arena(i64 noundef 72) #5
  %49 = getelementptr inbounds i8, ptr %48, i64 4
  store i32 8, ptr %49, align 4
  br label %52

50:                                               ; preds = %copy_expr_list.exit.i
  %51 = getelementptr inbounds i8, ptr %.02936.i, i64 -8
  %.phi.trans.insert.i.i = getelementptr inbounds i8, ptr %.02936.i, i64 -4
  %.pre.i.i = load i32, ptr %.phi.trans.insert.i.i, align 4
  br label %52

52:                                               ; preds = %50, %47
  %53 = phi i32 [ %.pre.i.i, %50 ], [ 8, %47 ]
  %.0.i.i = phi ptr [ %51, %50 ], [ %48, %47 ]
  %54 = load i32, ptr %.0.i.i, align 4
  %55 = icmp eq i32 %54, %53
  br i1 %55, label %56, label %70

56:                                               ; preds = %52
  %57 = getelementptr inbounds i8, ptr %.0.i.i, i64 4
  %58 = shl i32 %53, 1
  %59 = zext i32 %58 to i64
  %60 = shl nuw nsw i64 %59, 3
  %61 = or disjoint i64 %60, 8
  %62 = tail call ptr @calloc_arena(i64 noundef %61) #5
  %63 = getelementptr inbounds i8, ptr %62, i64 4
  store i32 %58, ptr %63, align 4
  %64 = load i32, ptr %57, align 4
  %65 = zext i32 %64 to i64
  %66 = shl nuw nsw i64 %65, 3
  %67 = add nuw nsw i64 %66, 8
  tail call void @llvm.memcpy.p0.p0.i64(ptr noundef nonnull align 4 dereferenceable(1) %62, ptr noundef nonnull align 4 dereferenceable(1) %.0.i.i, i64 %67, i1 false)
  %68 = load i32, ptr %63, align 4
  %69 = shl i32 %68, 1
  store i32 %69, ptr %63, align 4
  %.pre18.i.i = load i32, ptr %62, align 4
  br label %70

70:                                               ; preds = %56, %52
  %71 = phi i32 [ %.pre18.i.i, %56 ], [ %54, %52 ]
  %.1.i.i = phi ptr [ %62, %56 ], [ %.0.i.i, %52 ]
  %72 = add i32 %71, 1
  store i32 %72, ptr %.1.i.i, align 4
  %73 = getelementptr inbounds i8, ptr %.1.i.i, i64 8
  %74 = zext i32 %71 to i64
  %75 = getelementptr inbounds ptr, ptr %73, i64 %74
  store ptr %7, ptr %75, align 8
  %indvars.iv.next.i = add nuw nsw i64 %indvars.iv.i, 1
  %exitcond.not.i = icmp eq i64 %indvars.iv.next.i, %wide.trip.count.i
  br i1 %exitcond.not.i, label %copy_attributes.exit, label %.lr.ph.i, !llvm.loop !12

copy_attributes.exit:                             ; preds = %70, %1, %2
  %.028.i = phi ptr [ null, %1 ], [ null, %2 ], [ %73, %70 ]
  store i8 0, ptr getelementptr inbounds (%struct.CopyStruct_, ptr @copy_struct, i64 0, i32 3), align 1
  ret ptr %.028.i
}